; ModuleID = '4/674.c'
source_filename = "4/674.c"
target datalayout = "e-m:e-p270:32:32-p271:32:32-p272:64:64-i64:64-f80:128-n8:16:32:64-S128"
target triple = "x86_64-pc-linux-gnu"

@.str = private unnamed_addr constant [6 x i8] c"%d %d\00", align 1
@.str.1 = private unnamed_addr constant [3 x i8] c"%d\00", align 1
@.str.2 = private unnamed_addr constant [4 x i8] c"%d\0A\00", align 1

; Function Attrs: noinline nounwind uwtable
define dso_local void @main() #0 {
  %1 = alloca i32, align 4
  %2 = alloca i32, align 4
  %3 = alloca i32, align 4
  %4 = alloca i32, align 4
  %5 = alloca [100 x [100 x i32]], align 16
  %6 = alloca i32, align 4
  %7 = call i32 (i8*, ...) @__isoc99_scanf(i8* getelementptr inbounds ([6 x i8], [6 x i8]* @.str, i64 0, i64 0), i32* %3, i32* %4)
  store i32 0, i32* %1, align 4
  br label %8

8:                                                ; preds = %26, %0
  %9 = load i32, i32* %1, align 4
  %10 = icmp slt i32 %9, 100
  br i1 %10, label %11, label %29

11:                                               ; preds = %8
  store i32 0, i32* %2, align 4
  br label %12

12:                                               ; preds = %22, %11
  %13 = load i32, i32* %2, align 4
  %14 = icmp slt i32 %13, 100
  br i1 %14, label %15, label %25

15:                                               ; preds = %12
  %16 = load i32, i32* %1, align 4
  %17 = sext i32 %16 to i64
  %18 = getelementptr inbounds [100 x [100 x i32]], [100 x [100 x i32]]* %5, i64 0, i64 %17
  %19 = load i32, i32* %2, align 4
  %20 = sext i32 %19 to i64
  %21 = getelementptr inbounds [100 x i32], [100 x i32]* %18, i64 0, i64 %20
  store i32 0, i32* %21, align 4
  br label %22

22:                                               ; preds = %15
  %23 = load i32, i32* %2, align 4
  %24 = add nsw i32 %23, 1
  store i32 %24, i32* %2, align 4
  br label %12

25:                                               ; preds = %12
  br label %26

26:                                               ; preds = %25
  %27 = load i32, i32* %1, align 4
  %28 = add nsw i32 %27, 1
  store i32 %28, i32* %1, align 4
  br label %8

29:                                               ; preds = %8
  store i32 0, i32* %1, align 4
  br label %30

30:                                               ; preds = %51, %29
  %31 = load i32, i32* %1, align 4
  %32 = load i32, i32* %3, align 4
  %33 = icmp slt i32 %31, %32
  br i1 %33, label %34, label %54

34:                                               ; preds = %30
  store i32 0, i32* %2, align 4
  br label %35

35:                                               ; preds = %47, %34
  %36 = load i32, i32* %2, align 4
  %37 = load i32, i32* %4, align 4
  %38 = icmp slt i32 %36, %37
  br i1 %38, label %39, label %50

39:                                               ; preds = %35
  %40 = load i32, i32* %1, align 4
  %41 = sext i32 %40 to i64
  %42 = getelementptr inbounds [100 x [100 x i32]], [100 x [100 x i32]]* %5, i64 0, i64 %41
  %43 = load i32, i32* %2, align 4
  %44 = sext i32 %43 to i64
  %45 = getelementptr inbounds [100 x i32], [100 x i32]* %42, i64 0, i64 %44
  %46 = call i32 (i8*, ...) @__isoc99_scanf(i8* getelementptr inbounds ([3 x i8], [3 x i8]* @.str.1, i64 0, i64 0), i32* %45)
  br label %47

47:                                               ; preds = %39
  %48 = load i32, i32* %2, align 4
  %49 = add nsw i32 %48, 1
  store i32 %49, i32* %2, align 4
  br label %35

50:                                               ; preds = %35
  br label %51

51:                                               ; preds = %50
  %52 = load i32, i32* %1, align 4
  %53 = add nsw i32 %52, 1
  store i32 %53, i32* %1, align 4
  br label %30

54:                                               ; preds = %30
  %55 = load i32, i32* %3, align 4
  %56 = load i32, i32* %4, align 4
  %57 = add nsw i32 %55, %56
  store i32 %57, i32* %6, align 4
  store i32 0, i32* %1, align 4
  br label %58

58:                                               ; preds = %93, %54
  %59 = load i32, i32* %1, align 4
  %60 = load i32, i32* %6, align 4
  %61 = icmp sle i32 %59, %60
  br i1 %61, label %62, label %96

62:                                               ; preds = %58
  store i32 0, i32* %2, align 4
  br label %63

63:                                               ; preds = %89, %62
  %64 = load i32, i32* %2, align 4
  %65 = load i32, i32* %1, align 4
  %66 = icmp sle i32 %64, %65
  br i1 %66, label %67, label %92

67:                                               ; preds = %63
  %68 = load i32, i32* %2, align 4
  %69 = load i32, i32* %3, align 4
  %70 = icmp slt i32 %68, %69
  br i1 %70, label %71, label %88

71:                                               ; preds = %67
  %72 = load i32, i32* %1, align 4
  %73 = load i32, i32* %2, align 4
  %74 = sub nsw i32 %72, %73
  %75 = load i32, i32* %4, align 4
  %76 = icmp slt i32 %74, %75
  br i1 %76, label %77, label %88

77:                                               ; preds = %71
  %78 = load i32, i32* %2, align 4
  %79 = sext i32 %78 to i64
  %80 = getelementptr inbounds [100 x [100 x i32]], [100 x [100 x i32]]* %5, i64 0, i64 %79
  %81 = load i32, i32* %1, align 4
  %82 = load i32, i32* %2, align 4
  %83 = sub nsw i32 %81, %82
  %84 = sext i32 %83 to i64
  %85 = getelementptr inbounds [100 x i32], [100 x i32]* %80, i64 0, i64 %84
  %86 = load i32, i32* %85, align 4
  %87 = call i32 (i8*, ...) @printf(i8* getelementptr inbounds ([4 x i8], [4 x i8]* @.str.2, i64 0, i64 0), i32 %86)
  br label %88

88:                                               ; preds = %77, %71, %67
  br label %89

89:                                               ; preds = %88
  %90 = load i32, i32* %2, align 4
  %91 = add nsw i32 %90, 1
  store i32 %91, i32* %2, align 4
  br label %63

92:                                               ; preds = %63
  br label %93

93:                                               ; preds = %92
  %94 = load i32, i32* %1, align 4
  %95 = add nsw i32 %94, 1
  store i32 %95, i32* %1, align 4
  br label %58

96:                                               ; preds = %58
  ret void
}

declare dso_local i32 @__isoc99_scanf(i8*, ...) #1

declare dso_local i32 @printf(i8*, ...) #1


!llvm.module.flags = !{!0}
!llvm.ident = !{!1}

!0 = !{i32 1, !"wchar_size", i32 4}
!1 = !{!"clang version 10.0.0-4ubuntu1 "}
